target datalayout = "e-m:e-p270:32:32-p271:32:32-p272:64:64-i64:64-i128:128-f80:128-n8:16:32:64-S128"
target triple = "x86_64-pc-linux-gnu"

%struct.wtapng_block_s = type { i32, i32, ptr, ptr, ptr }
%struct.section_info_t = type { i32, i16, i16, ptr, i64, i32, i64, i64 }
%struct.wtap = type { ptr, ptr, i32, i32, i32, ptr, ptr, ptr, i32, ptr, ptr, ptr, ptr, ptr, ptr, ptr, ptr, ptr, ptr, i32, i32, ptr, ptr, ptr, ptr }
%struct._GArray = type { ptr, i32 }
%struct.pcapng_t = type { i32, ptr }
%struct.wtap_rec = type { i32, i32, i32, %struct.nstime_t, i32, %struct.nstime_t, i32, %union.anon, ptr, i32, %struct.Buffer }
%struct.nstime_t = type { i64, i32 }
%union.anon = type { %struct.wtap_packet_header }
%struct.wtap_packet_header = type { i32, i32, i32, i32, %union.wtap_pseudo_header }
%union.wtap_pseudo_header = type { %struct.erf_mc_phdr }
%struct.erf_mc_phdr = type { %struct.erf_phdr, [16 x %struct.erf_ehdr], %union.anon.1 }
%struct.erf_phdr = type { i64, i8, i8, i16, i16, i16 }
%struct.erf_ehdr = type { i64 }
%union.anon.1 = type { i32 }
%struct.Buffer = type { ptr, i64, i64, i64 }

; Function Attrs: nounwind uwtable
define internal i32 @pcapng_seek_read(ptr noundef %0, i64 noundef %1, ptr noundef %2, ptr noundef %3, ptr noundef %4, ptr noundef %5) #0 {
  %7 = alloca i32, align 4
  %8 = alloca ptr, align 8
  %9 = alloca i64, align 8
  %10 = alloca ptr, align 8
  %11 = alloca ptr, align 8
  %12 = alloca ptr, align 8
  %13 = alloca ptr, align 8
  %14 = alloca ptr, align 8
  %15 = alloca ptr, align 8
  %16 = alloca %struct.section_info_t, align 8
  %17 = alloca %struct.wtapng_block_s, align 8
  %18 = alloca i32, align 4
  store ptr %0, ptr %8, align 8
  store i64 %1, ptr %9, align 8
  store ptr %2, ptr %10, align 8
  store ptr %3, ptr %11, align 8
  store ptr %4, ptr %12, align 8
  store ptr %5, ptr %13, align 8
  %19 = load ptr, ptr %8, align 8
  %20 = getelementptr inbounds %struct.wtap, ptr %19, i32 0, i32 13
  %21 = load ptr, ptr %20, align 8
  store ptr %21, ptr %14, align 8
  %22 = load ptr, ptr %8, align 8
  %23 = getelementptr inbounds %struct.wtap, ptr %22, i32 0, i32 1
  %24 = load ptr, ptr %23, align 8
  %25 = load i64, ptr %9, align 8
  %26 = load ptr, ptr %12, align 8
  %27 = call i64 @file_seek(ptr noundef %24, i64 noundef %25, i32 noundef 0, ptr noundef %26)
  %28 = icmp slt i64 %27, 0
  br i1 %28, label %29, label %30

29:                                               ; preds = %6
  store i32 0, ptr %7, align 4
  br label %100

30:                                               ; preds = %6
  br label %31

31:                                               ; preds = %30
  br label %32

32:                                               ; preds = %31
  br label %33

33:                                               ; preds = %32
  br label %34

34:                                               ; preds = %33
  %35 = load ptr, ptr %14, align 8
  %36 = getelementptr inbounds %struct.pcapng_t, ptr %35, i32 0, i32 1
  %37 = load ptr, ptr %36, align 8
  %38 = getelementptr inbounds %struct._GArray, ptr %37, i32 0, i32 1
  %39 = load i32, ptr %38, align 8
  %40 = sub i32 %39, 1
  store i32 %40, ptr %18, align 4
  br label %41

41:                                               ; preds = %58, %34
  %42 = load ptr, ptr %14, align 8
  %43 = getelementptr inbounds %struct.pcapng_t, ptr %42, i32 0, i32 1
  %44 = load ptr, ptr %43, align 8
  %45 = getelementptr inbounds %struct._GArray, ptr %44, i32 0, i32 0
  %46 = load ptr, ptr %45, align 8
  %47 = load i32, ptr %18, align 4
  %48 = zext i32 %47 to i64
  %49 = getelementptr %struct.section_info_t, ptr %46, i64 %48
  store ptr %49, ptr %15, align 8
  %50 = load ptr, ptr %15, align 8
  %51 = getelementptr inbounds %struct.section_info_t, ptr %50, i32 0, i32 4
  %52 = load i64, ptr %51, align 8
  %53 = load i64, ptr %9, align 8
  %54 = icmp sle i64 %52, %53
  br i1 %54, label %55, label %56

55:                                               ; preds = %41
  br label %61

56:                                               ; preds = %41
  br label %57

57:                                               ; preds = %56
  br label %58

58:                                               ; preds = %57
  %59 = load i32, ptr %18, align 4
  %60 = add i32 %59, -1
  store i32 %60, ptr %18, align 4
  br label %41

61:                                               ; preds = %55
  %62 = load ptr, ptr %11, align 8
  %63 = getelementptr inbounds %struct.wtapng_block_s, ptr %17, i32 0, i32 4
  store ptr %62, ptr %63, align 8
  %64 = load ptr, ptr %10, align 8
  %65 = getelementptr inbounds %struct.wtapng_block_s, ptr %17, i32 0, i32 3
  store ptr %64, ptr %65, align 8
  %66 = load ptr, ptr %8, align 8
  %67 = load ptr, ptr %8, align 8
  %68 = getelementptr inbounds %struct.wtap, ptr %67, i32 0, i32 1
  %69 = load ptr, ptr %68, align 8
  %70 = load ptr, ptr %14, align 8
  %71 = load ptr, ptr %15, align 8
  %72 = load ptr, ptr %12, align 8
  %73 = load ptr, ptr %13, align 8
  %74 = call i32 @pcapng_read_block(ptr noundef %66, ptr noundef %69, ptr noundef %70, ptr noundef %71, ptr noundef %16, ptr noundef %17, ptr noundef %72, ptr noundef %73)
  %75 = icmp ne i32 %74, 0
  br i1 %75, label %81, label %76

76:                                               ; preds = %61
  br label %77

77:                                               ; preds = %76
  br label %78

78:                                               ; preds = %77
  %79 = getelementptr inbounds %struct.wtapng_block_s, ptr %17, i32 0, i32 2
  %80 = load ptr, ptr %79, align 8
  call void @wtap_block_unref(ptr noundef %80)
  store i32 0, ptr %7, align 4
  br label %100

81:                                               ; preds = %61
  %82 = getelementptr inbounds %struct.wtapng_block_s, ptr %17, i32 0, i32 1
  %83 = load i32, ptr %82, align 4
  %84 = icmp ne i32 %83, 0
  br i1 %84, label %85, label %90

85:                                               ; preds = %81
  br label %86

86:                                               ; preds = %85
  br label %87

87:                                               ; preds = %86
  %88 = getelementptr inbounds %struct.wtapng_block_s, ptr %17, i32 0, i32 2
  %89 = load ptr, ptr %88, align 8
  call void @wtap_block_unref(ptr noundef %89)
  store i32 0, ptr %7, align 4
  br label %100

90:                                               ; preds = %81
  %91 = getelementptr inbounds %struct.wtapng_block_s, ptr %17, i32 0, i32 2
  %92 = load ptr, ptr %91, align 8
  call void @wtap_block_unref(ptr noundef %92)
  %93 = load ptr, ptr %10, align 8
  %94 = getelementptr inbounds %struct.wtap_rec, ptr %93, i32 0, i32 1
  %95 = load i32, ptr %94, align 4
  %96 = or i32 %95, 8
  store i32 %96, ptr %94, align 4
  %97 = load i32, ptr %18, align 4
  %98 = load ptr, ptr %10, align 8
  %99 = getelementptr inbounds %struct.wtap_rec, ptr %98, i32 0, i32 2
  store i32 %97, ptr %99, align 8
  store i32 1, ptr %7, align 4
  br label %100

100:                                              ; preds = %90, %87, %78, %29
  %101 = load i32, ptr %7, align 4
  ret i32 %101
}