; Function Attrs: nounwind uwtable
define internal range(i32 0, 2) i32 @pcapng_seek_read(ptr noundef captures(none) %0, i64 noundef %1, ptr noundef %2, ptr noundef %3, ptr noundef %4, ptr noundef %5) #0 {
  %7 = alloca %struct.section_info_t, align 8
  %8 = alloca %struct.wtapng_block_s, align 8
  %9 = getelementptr inbounds nuw i8, ptr %0, i64 96
  %10 = load ptr, ptr %9, align 8
  %11 = getelementptr inbounds nuw i8, ptr %0, i64 8
  %12 = load ptr, ptr %11, align 8
  %13 = tail call i64 @file_seek(ptr noundef %12, i64 noundef %1, i32 noundef 0, ptr noundef %4) #16
  %14 = icmp slt i64 %13, 0
  br i1 %14, label %44, label %15

15:                                               ; preds = %6
  %16 = getelementptr inbounds nuw i8, ptr %10, i64 8
  %17 = load ptr, ptr %16, align 8
  %18 = getelementptr inbounds nuw i8, ptr %17, i64 8
  %19 = load i32, ptr %18, align 8
  %20 = load ptr, ptr %17, align 8
  br label %21

21:                                               ; preds = %21, %15
  %.0.in = phi i32 [ %19, %15 ], [ %.0, %21 ]
  %.0 = add i32 %.0.in, -1
  %22 = zext i32 %.0 to i64
  %23 = getelementptr %struct.section_info_t, ptr %20, i64 %22
  %24 = getelementptr inbounds nuw i8, ptr %23, i64 16
  %25 = load i64, ptr %24, align 8
  %.not = icmp sgt i64 %25, %1
  br i1 %.not, label %21, label %26

26:                                               ; preds = %21
  %27 = getelementptr inbounds nuw i8, ptr %8, i64 24
  store ptr %3, ptr %27, align 8
  %28 = getelementptr inbounds nuw i8, ptr %8, i64 16
  store ptr %2, ptr %28, align 8
  %29 = load ptr, ptr %11, align 8
  %30 = call fastcc i32 @pcapng_read_block(ptr noundef %0, ptr noundef %29, ptr noundef %23, ptr noundef %7, ptr noundef %8, ptr noundef %4, ptr noundef %5)
  %.not22 = icmp eq i32 %30, 0
  br i1 %.not22, label %31, label %34

31:                                               ; preds = %26
  %32 = getelementptr inbounds nuw i8, ptr %8, i64 8
  %33 = load ptr, ptr %32, align 8
  call void @wtap_block_unref(ptr noundef %33) #16
  br label %44

34:                                               ; preds = %26
  %35 = getelementptr inbounds nuw i8, ptr %8, i64 4
  %36 = load i32, ptr %35, align 4
  %.not23 = icmp eq i32 %36, 0
  %37 = getelementptr inbounds nuw i8, ptr %8, i64 8
  %38 = load ptr, ptr %37, align 8
  call void @wtap_block_unref(ptr noundef %38) #16
  br i1 %.not23, label %39, label %44

39:                                               ; preds = %34
  %40 = getelementptr inbounds nuw i8, ptr %2, i64 4
  %41 = load i32, ptr %40, align 4
  %42 = or i32 %41, 8
  store i32 %42, ptr %40, align 4
  %43 = getelementptr inbounds nuw i8, ptr %2, i64 8
  store i32 %.0, ptr %43, align 8
  br label %44

44:                                               ; preds = %34, %6, %39, %31
  %.021 = phi i32 [ 1, %39 ], [ 0, %31 ], [ 0, %6 ], [ 0, %34 ]
  ret i32 %.021
}